target datalayout = "e-m:e-p270:32:32-p271:32:32-p272:64:64-i64:64-i128:128-f80:128-n8:16:32:64-S128"
target triple = "x86_64-pc-linux-gnu"

%struct.pointf_s = type { double, double }
%struct.boxf = type { %struct.pointf_s, %struct.pointf_s }
%struct.dtlink_s_ = type { ptr, %union.anon.0 }
%union.anon.0 = type { ptr }
%struct.Agobj_s = type { %struct.Agtag_s, ptr }
%struct.Agtag_s = type { i32, i64 }
%struct.Agraphinfo_t = type { %struct.Agrec_s, ptr, ptr, %struct.boxf, [4 x %struct.pointf_s], i8, i8, i8, i8, i32, double, double, i16, ptr, ptr, ptr, ptr, i32, ptr, ptr, ptr, ptr, i16, i16, i32, ptr, ptr, ptr, ptr, ptr, i32, ptr, ptr, %struct.nlist_t, ptr, ptr, i32, i32, i8, i8, i32, i32, i32, ptr, ptr, ptr, ptr, i8, i8, i8, i8, i8 }
%struct.Agrec_s = type { ptr, ptr }
%struct.nlist_t = type { ptr, i64 }
%struct.Agraph_s = type { %struct.Agobj_s, %struct.Agdesc_s, %struct.dtlink_s_, %struct.dtlink_s_, ptr, ptr, ptr, ptr, ptr, ptr, ptr, ptr, ptr }
%struct.Agdesc_s = type { i8, [3 x i8] }
%struct.textlabel_t = type { ptr, ptr, ptr, i32, double, %struct.pointf_s, %struct.pointf_s, %struct.pointf_s, %union.anon.2, i8, i8, i8 }
%union.anon.2 = type { %struct.anon.3 }
%struct.anon.3 = type { ptr, i64 }

@.str.33 = private unnamed_addr constant [6 x i8] c"label\00", align 1
@.str.82 = private unnamed_addr constant [9 x i8] c"fontsize\00", align 1
@.str.83 = private unnamed_addr constant [9 x i8] c"fontname\00", align 1
@.str.84 = private unnamed_addr constant [10 x i8] c"fontcolor\00", align 1
@.str.122 = private unnamed_addr constant [12 x i8] c"Times-Roman\00", align 1
@.str.123 = private unnamed_addr constant [6 x i8] c"black\00", align 1
@.str.124 = private unnamed_addr constant [9 x i8] c"labelloc\00", align 1
@.str.125 = private unnamed_addr constant [10 x i8] c"labeljust\00", align 1

; Function Attrs: nounwind uwtable
define void @do_graph_label(ptr noundef %0) #0 {
  %2 = alloca ptr, align 8
  %3 = alloca ptr, align 8
  %4 = alloca ptr, align 8
  %5 = alloca ptr, align 8
  %6 = alloca i32, align 4
  %7 = alloca i8, align 1
  %8 = alloca %struct.pointf_s, align 8
  %9 = alloca i32, align 4
  store ptr %0, ptr %2, align 8, !tbaa !14
  call void @llvm.lifetime.start.p0(i64 8, ptr %3) #16
  call void @llvm.lifetime.start.p0(i64 8, ptr %4) #16
  call void @llvm.lifetime.start.p0(i64 8, ptr %5) #16
  call void @llvm.lifetime.start.p0(i64 4, ptr %6) #16
  %10 = load ptr, ptr %2, align 8, !tbaa !14
  %11 = call ptr @agget(ptr noundef %10, ptr noundef @.str.33)
  store ptr %11, ptr %3, align 8, !tbaa !3
  %12 = icmp ne ptr %11, null
  br i1 %12, label %13, label %199

13:                                               ; preds = %1
  %14 = load ptr, ptr %3, align 8, !tbaa !3
  %15 = load i8, ptr %14, align 1, !tbaa !51
  %16 = sext i8 %15 to i32
  %17 = icmp ne i32 %16, 0
  br i1 %17, label %18, label %199

18:                                               ; preds = %13
  call void @llvm.lifetime.start.p0(i64 1, ptr %7) #16
  call void @llvm.lifetime.start.p0(i64 16, ptr %8) #16
  %19 = load ptr, ptr %2, align 8, !tbaa !14
  %20 = getelementptr inbounds nuw %struct.Agraph_s, ptr %19, i32 0, i32 11
  %21 = load ptr, ptr %20, align 8, !tbaa !130
  %22 = getelementptr inbounds nuw %struct.Agobj_s, ptr %21, i32 0, i32 1
  %23 = load ptr, ptr %22, align 8, !tbaa !92
  %24 = getelementptr inbounds nuw %struct.Agraphinfo_t, ptr %23, i32 0, i32 6
  %25 = load i8, ptr %24, align 1, !tbaa !135
  %26 = zext i8 %25 to i32
  %27 = or i32 %26, 8
  %28 = trunc i32 %27 to i8
  store i8 %28, ptr %24, align 1, !tbaa !135
  %29 = load ptr, ptr %2, align 8, !tbaa !14
  %30 = load ptr, ptr %3, align 8, !tbaa !3
  %31 = load ptr, ptr %3, align 8, !tbaa !3
  %32 = call i32 @aghtmlstr(ptr noundef %31)
  %33 = icmp ne i32 %32, 0
  %34 = select i1 %33, i32 2, i32 0
  %35 = load ptr, ptr %2, align 8, !tbaa !14
  %36 = load ptr, ptr %2, align 8, !tbaa !14
  %37 = call ptr @agattr(ptr noundef %36, i32 noundef 0, ptr noundef @.str.82, ptr noundef null)
  %38 = call double @late_double(ptr noundef %35, ptr noundef %37, double noundef 1.400000e+01, double noundef 1.000000e+00)
  %39 = load ptr, ptr %2, align 8, !tbaa !14
  %40 = load ptr, ptr %2, align 8, !tbaa !14
  %41 = call ptr @agattr(ptr noundef %40, i32 noundef 0, ptr noundef @.str.83, ptr noundef null)
  %42 = call ptr @late_nnstring(ptr noundef %39, ptr noundef %41, ptr noundef @.str.122)
  %43 = load ptr, ptr %2, align 8, !tbaa !14
  %44 = load ptr, ptr %2, align 8, !tbaa !14
  %45 = call ptr @agattr(ptr noundef %44, i32 noundef 0, ptr noundef @.str.84, ptr noundef null)
  %46 = call ptr @late_nnstring(ptr noundef %43, ptr noundef %45, ptr noundef @.str.123)
  %47 = call ptr @make_label(ptr noundef %29, ptr noundef %30, i32 noundef %34, double noundef %38, ptr noundef %42, ptr noundef %46)
  %48 = load ptr, ptr %2, align 8, !tbaa !14
  %49 = getelementptr inbounds nuw %struct.Agobj_s, ptr %48, i32 0, i32 1
  %50 = load ptr, ptr %49, align 8, !tbaa !92
  %51 = getelementptr inbounds nuw %struct.Agraphinfo_t, ptr %50, i32 0, i32 2
  store ptr %47, ptr %51, align 8, !tbaa !136
  %52 = load ptr, ptr %2, align 8, !tbaa !14
  %53 = call ptr @agget(ptr noundef %52, ptr noundef @.str.124)
  store ptr %53, ptr %4, align 8, !tbaa !3
  %54 = load ptr, ptr %2, align 8, !tbaa !14
  %55 = load ptr, ptr %2, align 8, !tbaa !14
  %56 = call ptr @agroot(ptr noundef %55)
  %57 = icmp ne ptr %54, %56
  br i1 %57, label %58, label %70

58:                                               ; preds = %18
  %59 = load ptr, ptr %4, align 8, !tbaa !3
  %60 = icmp ne ptr %59, null
  br i1 %60, label %61, label %68

61:                                               ; preds = %58
  %62 = load ptr, ptr %4, align 8, !tbaa !3
  %63 = getelementptr inbounds i8, ptr %62, i64 0
  %64 = load i8, ptr %63, align 1, !tbaa !51
  %65 = sext i8 %64 to i32
  %66 = icmp eq i32 %65, 98
  br i1 %66, label %67, label %68

67:                                               ; preds = %61
  store i8 0, ptr %7, align 1, !tbaa !51
  br label %69

68:                                               ; preds = %61, %58
  store i8 1, ptr %7, align 1, !tbaa !51
  br label %69

69:                                               ; preds = %68, %67
  br label %82

70:                                               ; preds = %18
  %71 = load ptr, ptr %4, align 8, !tbaa !3
  %72 = icmp ne ptr %71, null
  br i1 %72, label %73, label %80

73:                                               ; preds = %70
  %74 = load ptr, ptr %4, align 8, !tbaa !3
  %75 = getelementptr inbounds i8, ptr %74, i64 0
  %76 = load i8, ptr %75, align 1, !tbaa !51
  %77 = sext i8 %76 to i32
  %78 = icmp eq i32 %77, 116
  br i1 %78, label %79, label %80

79:                                               ; preds = %73
  store i8 1, ptr %7, align 1, !tbaa !51
  br label %81

80:                                               ; preds = %73, %70
  store i8 0, ptr %7, align 1, !tbaa !51
  br label %81

81:                                               ; preds = %80, %79
  br label %82

82:                                               ; preds = %81, %69
  %83 = load ptr, ptr %2, align 8, !tbaa !14
  %84 = call ptr @agget(ptr noundef %83, ptr noundef @.str.125)
  store ptr %84, ptr %5, align 8, !tbaa !3
  %85 = load ptr, ptr %5, align 8, !tbaa !3
  %86 = icmp ne ptr %85, null
  br i1 %86, label %87, label %111

87:                                               ; preds = %82
  %88 = load ptr, ptr %5, align 8, !tbaa !3
  %89 = getelementptr inbounds i8, ptr %88, i64 0
  %90 = load i8, ptr %89, align 1, !tbaa !51
  %91 = sext i8 %90 to i32
  %92 = icmp eq i32 %91, 108
  br i1 %92, label %93, label %98

93:                                               ; preds = %87
  %94 = load i8, ptr %7, align 1, !tbaa !51
  %95 = sext i8 %94 to i32
  %96 = or i32 %95, 2
  %97 = trunc i32 %96 to i8
  store i8 %97, ptr %7, align 1, !tbaa !51
  br label %110

98:                                               ; preds = %87
  %99 = load ptr, ptr %5, align 8, !tbaa !3
  %100 = getelementptr inbounds i8, ptr %99, i64 0
  %101 = load i8, ptr %100, align 1, !tbaa !51
  %102 = sext i8 %101 to i32
  %103 = icmp eq i32 %102, 114
  br i1 %103, label %104, label %109

104:                                              ; preds = %98
  %105 = load i8, ptr %7, align 1, !tbaa !51
  %106 = sext i8 %105 to i32
  %107 = or i32 %106, 4
  %108 = trunc i32 %107 to i8
  store i8 %108, ptr %7, align 1, !tbaa !51
  br label %109

109:                                              ; preds = %104, %98
  br label %110

110:                                              ; preds = %109, %93
  br label %111

111:                                              ; preds = %110, %82
  %112 = load i8, ptr %7, align 1, !tbaa !51
  %113 = load ptr, ptr %2, align 8, !tbaa !14
  %114 = getelementptr inbounds nuw %struct.Agobj_s, ptr %113, i32 0, i32 1
  %115 = load ptr, ptr %114, align 8, !tbaa !92
  %116 = getelementptr inbounds nuw %struct.Agraphinfo_t, ptr %115, i32 0, i32 50
  store i8 %112, ptr %116, align 1, !tbaa !137
  %117 = load ptr, ptr %2, align 8, !tbaa !14
  %118 = load ptr, ptr %2, align 8, !tbaa !14
  %119 = call ptr @agroot(ptr noundef %118)
  %120 = icmp eq ptr %117, %119
  br i1 %120, label %121, label %122

121:                                              ; preds = %111
  store i32 1, ptr %9, align 4
  br label %196

122:                                              ; preds = %111
  %123 = load ptr, ptr %2, align 8, !tbaa !14
  %124 = getelementptr inbounds nuw %struct.Agobj_s, ptr %123, i32 0, i32 1
  %125 = load ptr, ptr %124, align 8, !tbaa !92
  %126 = getelementptr inbounds nuw %struct.Agraphinfo_t, ptr %125, i32 0, i32 2
  %127 = load ptr, ptr %126, align 8, !tbaa !136
  %128 = getelementptr inbounds nuw %struct.textlabel_t, ptr %127, i32 0, i32 5
  call void @llvm.memcpy.p0.p0.i64(ptr align 8 %8, ptr align 8 %128, i64 16, i1 false), !tbaa.struct !138
  %129 = getelementptr inbounds nuw %struct.pointf_s, ptr %8, i32 0, i32 0
  %130 = load double, ptr %129, align 8, !tbaa !128
  %131 = fadd double %130, 1.600000e+01
  store double %131, ptr %129, align 8, !tbaa !128
  %132 = getelementptr inbounds nuw %struct.pointf_s, ptr %8, i32 0, i32 1
  %133 = load double, ptr %132, align 8, !tbaa !129
  %134 = fadd double %133, 8.000000e+00
  store double %134, ptr %132, align 8, !tbaa !129
  %135 = load ptr, ptr %2, align 8, !tbaa !14
  %136 = call ptr @agroot(ptr noundef %135)
  %137 = getelementptr inbounds nuw %struct.Agobj_s, ptr %136, i32 0, i32 1
  %138 = load ptr, ptr %137, align 8, !tbaa !92
  %139 = getelementptr inbounds nuw %struct.Agraphinfo_t, ptr %138, i32 0, i32 9
  %140 = load i32, ptr %139, align 4, !tbaa !112
  %141 = and i32 %140, 3
  %142 = and i32 %141, 1
  %143 = icmp ne i32 %142, 0
  br i1 %143, label %163, label %144

144:                                              ; preds = %122
  %145 = load ptr, ptr %2, align 8, !tbaa !14
  %146 = getelementptr inbounds nuw %struct.Agobj_s, ptr %145, i32 0, i32 1
  %147 = load ptr, ptr %146, align 8, !tbaa !92
  %148 = getelementptr inbounds nuw %struct.Agraphinfo_t, ptr %147, i32 0, i32 50
  %149 = load i8, ptr %148, align 1, !tbaa !137
  %150 = sext i8 %149 to i32
  %151 = and i32 %150, 1
  %152 = icmp ne i32 %151, 0
  br i1 %152, label %153, label %154

153:                                              ; preds = %144
  store i32 2, ptr %6, align 4, !tbaa !8
  br label %155

154:                                              ; preds = %144
  store i32 0, ptr %6, align 4, !tbaa !8
  br label %155

155:                                              ; preds = %154, %153
  %156 = load ptr, ptr %2, align 8, !tbaa !14
  %157 = getelementptr inbounds nuw %struct.Agobj_s, ptr %156, i32 0, i32 1
  %158 = load ptr, ptr %157, align 8, !tbaa !92
  %159 = getelementptr inbounds nuw %struct.Agraphinfo_t, ptr %158, i32 0, i32 4
  %160 = load i32, ptr %6, align 4, !tbaa !8
  %161 = sext i32 %160 to i64
  %162 = getelementptr inbounds [4 x %struct.pointf_s], ptr %159, i64 0, i64 %161
  call void @llvm.memcpy.p0.p0.i64(ptr align 8 %162, ptr align 8 %8, i64 16, i1 false), !tbaa.struct !138
  br label %195

163:                                              ; preds = %122
  %164 = load ptr, ptr %2, align 8, !tbaa !14
  %165 = getelementptr inbounds nuw %struct.Agobj_s, ptr %164, i32 0, i32 1
  %166 = load ptr, ptr %165, align 8, !tbaa !92
  %167 = getelementptr inbounds nuw %struct.Agraphinfo_t, ptr %166, i32 0, i32 50
  %168 = load i8, ptr %167, align 1, !tbaa !137
  %169 = sext i8 %168 to i32
  %170 = and i32 %169, 1
  %171 = icmp ne i32 %170, 0
  br i1 %171, label %172, label %173

172:                                              ; preds = %163
  store i32 1, ptr %6, align 4, !tbaa !8
  br label %174

173:                                              ; preds = %163
  store i32 3, ptr %6, align 4, !tbaa !8
  br label %174

174:                                              ; preds = %173, %172
  %175 = getelementptr inbounds nuw %struct.pointf_s, ptr %8, i32 0, i32 1
  %176 = load double, ptr %175, align 8, !tbaa !129
  %177 = load ptr, ptr %2, align 8, !tbaa !14
  %178 = getelementptr inbounds nuw %struct.Agobj_s, ptr %177, i32 0, i32 1
  %179 = load ptr, ptr %178, align 8, !tbaa !92
  %180 = getelementptr inbounds nuw %struct.Agraphinfo_t, ptr %179, i32 0, i32 4
  %181 = load i32, ptr %6, align 4, !tbaa !8
  %182 = sext i32 %181 to i64
  %183 = getelementptr inbounds [4 x %struct.pointf_s], ptr %180, i64 0, i64 %182
  %184 = getelementptr inbounds nuw %struct.pointf_s, ptr %183, i32 0, i32 0
  store double %176, ptr %184, align 8, !tbaa !128
  %185 = getelementptr inbounds nuw %struct.pointf_s, ptr %8, i32 0, i32 0
  %186 = load double, ptr %185, align 8, !tbaa !128
  %187 = load ptr, ptr %2, align 8, !tbaa !14
  %188 = getelementptr inbounds nuw %struct.Agobj_s, ptr %187, i32 0, i32 1
  %189 = load ptr, ptr %188, align 8, !tbaa !92
  %190 = getelementptr inbounds nuw %struct.Agraphinfo_t, ptr %189, i32 0, i32 4
  %191 = load i32, ptr %6, align 4, !tbaa !8
  %192 = sext i32 %191 to i64
  %193 = getelementptr inbounds [4 x %struct.pointf_s], ptr %190, i64 0, i64 %192
  %194 = getelementptr inbounds nuw %struct.pointf_s, ptr %193, i32 0, i32 1
  store double %186, ptr %194, align 8, !tbaa !129
  br label %195

195:                                              ; preds = %174, %155
  store i32 0, ptr %9, align 4
  br label %196

196:                                              ; preds = %195, %121
  call void @llvm.lifetime.end.p0(i64 16, ptr %8) #16
  call void @llvm.lifetime.end.p0(i64 1, ptr %7) #16
  %197 = load i32, ptr %9, align 4
  switch i32 %197, label %200 [
    i32 0, label %198
  ]

198:                                              ; preds = %196
  br label %199

199:                                              ; preds = %198, %13, %1
  store i32 0, ptr %9, align 4
  br label %200

200:                                              ; preds = %199, %196
  call void @llvm.lifetime.end.p0(i64 4, ptr %6) #16
  call void @llvm.lifetime.end.p0(i64 8, ptr %5) #16
  call void @llvm.lifetime.end.p0(i64 8, ptr %4) #16
  call void @llvm.lifetime.end.p0(i64 8, ptr %3) #16
  %201 = load i32, ptr %9, align 4
  switch i32 %201, label %203 [
    i32 0, label %202
    i32 1, label %202
  ]

202:                                              ; preds = %200, %200
  ret void

203:                                              ; preds = %200
  unreachable
}