; Function Attrs: nounwind uwtable
define void @do_graph_label(ptr noundef %0) local_unnamed_addr #4 {
  %2 = tail call ptr @agget(ptr noundef %0, ptr noundef nonnull @.str.33) #24
  %.not = icmp eq ptr %2, null
  br i1 %.not, label %.critedge, label %3

3:                                                ; preds = %1
  %4 = load i8, ptr %2, align 1, !tbaa !41
  %.not54 = icmp eq i8 %4, 0
  br i1 %.not54, label %.critedge, label %5

5:                                                ; preds = %3
  %6 = getelementptr inbounds nuw i8, ptr %0, i64 120
  %7 = load ptr, ptr %6, align 8, !tbaa !121
  %8 = getelementptr inbounds nuw i8, ptr %7, i64 16
  %9 = load ptr, ptr %8, align 8, !tbaa !83
  %10 = getelementptr inbounds nuw i8, ptr %9, i64 129
  %11 = load i8, ptr %10, align 1, !tbaa !126
  %12 = or i8 %11, 8
  store i8 %12, ptr %10, align 1, !tbaa !126
  %13 = tail call i32 @aghtmlstr(ptr noundef nonnull %2) #24
  %.not55 = icmp eq i32 %13, 0
  %14 = select i1 %.not55, i32 0, i32 2
  %15 = tail call ptr @agattr(ptr noundef %0, i32 noundef 0, ptr noundef nonnull @.str.82, ptr noundef null) #24
  %16 = tail call double @late_double(ptr noundef %0, ptr noundef %15, double noundef 1.400000e+01, double noundef 1.000000e+00) #24
  %17 = tail call ptr @agattr(ptr noundef %0, i32 noundef 0, ptr noundef nonnull @.str.83, ptr noundef null) #24
  %18 = tail call ptr @late_nnstring(ptr noundef %0, ptr noundef %17, ptr noundef nonnull @.str.122) #24
  %19 = tail call ptr @agattr(ptr noundef %0, i32 noundef 0, ptr noundef nonnull @.str.84, ptr noundef null) #24
  %20 = tail call ptr @late_nnstring(ptr noundef %0, ptr noundef %19, ptr noundef nonnull @.str.123) #24
  %21 = tail call ptr @make_label(ptr noundef %0, ptr noundef nonnull %2, i32 noundef %14, double noundef %16, ptr noundef %18, ptr noundef %20) #24
  %22 = getelementptr inbounds nuw i8, ptr %0, i64 16
  %23 = load ptr, ptr %22, align 8, !tbaa !83
  %24 = getelementptr inbounds nuw i8, ptr %23, i64 24
  store ptr %21, ptr %24, align 8, !tbaa !127
  %25 = tail call ptr @agget(ptr noundef %0, ptr noundef nonnull @.str.124) #24
  %26 = tail call ptr @agroot(ptr noundef %0) #24
  %.not56 = icmp eq ptr %0, %26
  %.not57 = icmp eq ptr %25, null
  br i1 %.not56, label %32, label %27

27:                                               ; preds = %5
  br i1 %.not57, label %31, label %28

28:                                               ; preds = %27
  %29 = load i8, ptr %25, align 1, !tbaa !41
  %30 = icmp eq i8 %29, 98
  br i1 %30, label %37, label %31

31:                                               ; preds = %28, %27
  br label %37

32:                                               ; preds = %5
  br i1 %.not57, label %36, label %33

33:                                               ; preds = %32
  %34 = load i8, ptr %25, align 1, !tbaa !41
  %35 = icmp eq i8 %34, 116
  br i1 %35, label %37, label %36

36:                                               ; preds = %33, %32
  br label %37

37:                                               ; preds = %33, %28, %36, %31
  %.045 = phi i8 [ 1, %31 ], [ 0, %36 ], [ 0, %28 ], [ 1, %33 ]
  %38 = tail call ptr @agget(ptr noundef nonnull %0, ptr noundef nonnull @.str.125) #24
  %.not59 = icmp eq ptr %38, null
  br i1 %.not59, label %45, label %39

39:                                               ; preds = %37
  %40 = load i8, ptr %38, align 1, !tbaa !41
  switch i8 %40, label %45 [
    i8 108, label %41
    i8 114, label %43
  ]

41:                                               ; preds = %39
  %42 = or disjoint i8 %.045, 2
  br label %45

43:                                               ; preds = %39
  %44 = or disjoint i8 %.045, 4
  br label %45

45:                                               ; preds = %39, %41, %43, %37
  %.1 = phi i8 [ %42, %41 ], [ %44, %43 ], [ %.045, %37 ], [ %.045, %39 ]
  %46 = load ptr, ptr %22, align 8, !tbaa !83
  %47 = getelementptr inbounds nuw i8, ptr %46, i64 395
  store i8 %.1, ptr %47, align 1, !tbaa !128
  %48 = tail call ptr @agroot(ptr noundef nonnull %0) #24
  %.not63 = icmp eq ptr %0, %48
  br i1 %.not63, label %.critedge, label %49

49:                                               ; preds = %45
  %50 = load ptr, ptr %22, align 8, !tbaa !83
  %51 = getelementptr inbounds nuw i8, ptr %50, i64 24
  %52 = load ptr, ptr %51, align 8, !tbaa !127
  %53 = getelementptr inbounds nuw i8, ptr %52, i64 40
  %.sroa.0.0.copyload = load double, ptr %53, align 8, !tbaa !59
  %.sroa.7.0..sroa_idx = getelementptr inbounds nuw i8, ptr %52, i64 48
  %.sroa.7.0.copyload = load double, ptr %.sroa.7.0..sroa_idx, align 8, !tbaa !59
  %54 = fadd double %.sroa.0.0.copyload, 1.600000e+01
  %55 = fadd double %.sroa.7.0.copyload, 8.000000e+00
  %56 = tail call ptr @agroot(ptr noundef nonnull %0) #24
  %57 = getelementptr inbounds nuw i8, ptr %56, i64 16
  %58 = load ptr, ptr %57, align 8, !tbaa !83
  %59 = getelementptr inbounds nuw i8, ptr %58, i64 132
  %60 = load i32, ptr %59, align 4, !tbaa !103
  %61 = and i32 %60, 1
  %.not60 = icmp eq i32 %61, 0
  %62 = load ptr, ptr %22, align 8, !tbaa !83
  %63 = getelementptr inbounds nuw i8, ptr %62, i64 395
  %64 = load i8, ptr %63, align 1, !tbaa !128
  %65 = getelementptr inbounds nuw i8, ptr %62, i64 64
  br i1 %.not60, label %66, label %70

66:                                               ; preds = %49
  %67 = shl i8 %64, 1
  %68 = and i8 %67, 2
  %. = zext nneg i8 %68 to i64
  %69 = getelementptr inbounds nuw [4 x %struct.pointf_s], ptr %65, i64 0, i64 %.
  store double %54, ptr %69, align 8, !tbaa !59
  %.sroa.7.0..sroa_idx3 = getelementptr inbounds nuw i8, ptr %69, i64 8
  store double %55, ptr %.sroa.7.0..sroa_idx3, align 8, !tbaa !59
  br label %.critedge

70:                                               ; preds = %49
  %71 = and i8 %64, 1
  %.not62 = icmp eq i8 %71, 0
  %.64 = select i1 %.not62, i64 3, i64 1
  %72 = getelementptr inbounds nuw [4 x %struct.pointf_s], ptr %65, i64 0, i64 %.64
  store double %55, ptr %72, align 8, !tbaa !119
  %.idx = shl nuw nsw i64 %.64, 4
  %73 = getelementptr i8, ptr %62, i64 72
  %74 = getelementptr i8, ptr %73, i64 %.idx
  store double %54, ptr %74, align 8, !tbaa !120
  br label %.critedge

.critedge:                                        ; preds = %70, %66, %45, %1, %3
  ret void
}